; Function Attrs: mustprogress uwtable
define void @_ZN3gmx4Bias25warnForHistogramAnomaliesEdlP8_IO_FILE(ptr noundef nonnull align 8 dereferenceable(556) %0, double noundef %1, i64 noundef %2, ptr noundef %3) local_unnamed_addr #0 align 2 {
  %5 = icmp eq ptr %3, null
  br i1 %5, label %_ZNK3gmx10BiasParams32isCheckHistogramForAnomaliesStepEl.exit.thread, label %6

6:                                                ; preds = %4
  %7 = getelementptr inbounds i8, ptr %0, i64 552
  %8 = load i32, ptr %7, align 8
  %9 = icmp sgt i32 %8, 9
  br i1 %9, label %_ZNK3gmx10BiasParams32isCheckHistogramForAnomaliesStepEl.exit.thread, label %10

10:                                               ; preds = %6
  %11 = getelementptr inbounds i8, ptr %0, i64 216
  %12 = getelementptr inbounds i8, ptr %0, i64 320
  %13 = load i8, ptr %12, align 8
  %14 = trunc i8 %13 to i1
  %15 = icmp slt i64 %2, 1
  %or.cond.not = or i1 %15, %14
  br i1 %or.cond.not, label %_ZNK3gmx10BiasParams32isCheckHistogramForAnomaliesStepEl.exit.thread, label %_ZNK3gmx10BiasParams32isCheckHistogramForAnomaliesStepEl.exit

_ZNK3gmx10BiasParams32isCheckHistogramForAnomaliesStepEl.exit: ; preds = %10
  %16 = getelementptr inbounds i8, ptr %0, i64 104
  %17 = load i64, ptr %16, align 8
  %18 = srem i64 %2, %17
  %19 = icmp eq i64 %18, 0
  br i1 %19, label %20, label %_ZNK3gmx10BiasParams32isCheckHistogramForAnomaliesStepEl.exit.thread

20:                                               ; preds = %_ZNK3gmx10BiasParams32isCheckHistogramForAnomaliesStepEl.exit
  %21 = getelementptr inbounds i8, ptr %0, i64 24
  %22 = getelementptr inbounds i8, ptr %0, i64 204
  %23 = load i32, ptr %22, align 4
  %24 = tail call noundef i32 @_ZNK3gmx9BiasState25warnForHistogramAnomaliesERKNS_8BiasGridEidP8_IO_FILEi(ptr noundef nonnull align 8 dereferenceable(216) %11, ptr noundef nonnull align 8 dereferenceable(48) %21, i32 noundef %23, double noundef %1, ptr noundef nonnull %3, i32 noundef 1)
  %25 = load i32, ptr %7, align 8
  %26 = add nsw i32 %25, %24
  store i32 %26, ptr %7, align 8
  %27 = icmp sgt i32 %26, 9
  br i1 %27, label %28, label %_ZNK3gmx10BiasParams32isCheckHistogramForAnomaliesStepEl.exit.thread

28:                                               ; preds = %20
  %29 = load i32, ptr %22, align 4
  %30 = add nsw i32 %29, 1
  %31 = tail call i32 (ptr, ptr, ...) @fprintf(ptr noundef nonnull %3, ptr noundef nonnull @.str, i32 noundef %30) #15
  br label %_ZNK3gmx10BiasParams32isCheckHistogramForAnomaliesStepEl.exit.thread

_ZNK3gmx10BiasParams32isCheckHistogramForAnomaliesStepEl.exit.thread: ; preds = %4, %6, %10, %_ZNK3gmx10BiasParams32isCheckHistogramForAnomaliesStepEl.exit, %28, %20
  ret void
}